; Function Attrs: nounwind uwtable
define internal i32 @X11_CheckWindowManagerErrorHandler(ptr noundef %0, ptr noundef %1) #0 {
  %3 = getelementptr inbounds nuw i8, ptr %1, i64 32
  %4 = load i8, ptr %3, align 8
  %5 = icmp eq i8 %4, 3
  br i1 %5, label %9, label %6

6:                                                ; preds = %2
  %7 = load ptr, ptr @handler, align 8
  %8 = tail call i32 %7(ptr noundef %0, ptr noundef nonnull %1) #5
  br label %9

9:                                                ; preds = %2, %6
  %.0 = phi i32 [ %8, %6 ], [ 0, %2 ]
  ret i32 %.0
}